target datalayout = "e-m:e-p270:32:32-p271:32:32-p272:64:64-i64:64-i128:128-f80:128-n8:16:32:64-S128"
target triple = "x86_64-pc-linux-gnu"

%"class.ncnn::Layer" = type { ptr, i8, i8, i8, i8, i8, i8, i8, i8, i8, i8, i8, i8, i8, i8, i8, i8, i8, i8, i8, i8, i32, ptr, i32, %"class.std::__cxx11::basic_string", %"class.std::__cxx11::basic_string", %"class.std::vector", %"class.std::vector", %"class.std::vector.3", %"class.std::vector.3" }
%"class.std::__cxx11::basic_string" = type { %"struct.std::__cxx11::basic_string<char>::_Alloc_hider", i64, %union.anon }
%"struct.std::__cxx11::basic_string<char>::_Alloc_hider" = type { ptr }
%union.anon = type { i64, [8 x i8] }
%"class.std::vector" = type { %"struct.std::_Vector_base" }
%"struct.std::_Vector_base" = type { %"struct.std::_Vector_base<int, std::allocator<int>>::_Vector_impl" }
%"struct.std::_Vector_base<int, std::allocator<int>>::_Vector_impl" = type { %"struct.std::_Vector_base<int, std::allocator<int>>::_Vector_impl_data" }
%"struct.std::_Vector_base<int, std::allocator<int>>::_Vector_impl_data" = type { ptr, ptr, ptr }
%"class.std::vector.3" = type { %"struct.std::_Vector_base.4" }
%"struct.std::_Vector_base.4" = type { %"struct.std::_Vector_base<ncnn::Mat, std::allocator<ncnn::Mat>>::_Vector_impl" }
%"struct.std::_Vector_base<ncnn::Mat, std::allocator<ncnn::Mat>>::_Vector_impl" = type { %"struct.std::_Vector_base<ncnn::Mat, std::allocator<ncnn::Mat>>::_Vector_impl_data" }
%"struct.std::_Vector_base<ncnn::Mat, std::allocator<ncnn::Mat>>::_Vector_impl_data" = type { ptr, ptr, ptr }

$_ZN4ncnn4NoopD0Ev = comdat any

@_ZTVN4ncnn4NoopE = hidden unnamed_addr constant { [12 x ptr] } { [12 x ptr] [ptr null, ptr @_ZTIN4ncnn4NoopE, ptr @_ZN4ncnn5LayerD2Ev, ptr @_ZN4ncnn4NoopD0Ev, ptr @_ZN4ncnn5Layer10load_paramERKNS_9ParamDictE, ptr @_ZN4ncnn5Layer10load_modelERKNS_8ModelBinE, ptr @_ZN4ncnn5Layer15create_pipelineERKNS_6OptionE, ptr @_ZN4ncnn5Layer16destroy_pipelineERKNS_6OptionE, ptr @_ZNK4ncnn5Layer7forwardERKSt6vectorINS_3MatESaIS2_EERS4_RKNS_6OptionE, ptr @_ZNK4ncnn5Layer7forwardERKNS_3MatERS1_RKNS_6OptionE, ptr @_ZNK4ncnn4Noop15forward_inplaceERSt6vectorINS_3MatESaIS2_EERKNS_6OptionE, ptr @_ZNK4ncnn5Layer15forward_inplaceERNS_3MatERKNS_6OptionE] }, align 8
@_ZTIN4ncnn4NoopE = hidden constant { ptr, ptr, ptr } { ptr getelementptr inbounds (ptr, ptr @_ZTVN10__cxxabiv120__si_class_type_infoE, i64 2), ptr @_ZTSN4ncnn4NoopE, ptr @_ZTIN4ncnn5LayerE }, align 8
@_ZTVN10__cxxabiv120__si_class_type_infoE = external global [0 x ptr]
@_ZTSN4ncnn4NoopE = hidden constant [13 x i8] c"N4ncnn4NoopE\00", align 1
@_ZTIN4ncnn5LayerE = external constant ptr

@_ZN4ncnn4NoopC1Ev = hidden unnamed_addr alias void (ptr), ptr @_ZN4ncnn4NoopC2Ev

; Function Attrs: nounwind
declare void @_ZN4ncnn5LayerD2Ev(ptr noundef nonnull align 8 dereferenceable(208)) unnamed_addr #0

; Function Attrs: inlinehint mustprogress nounwind uwtable
define linkonce_odr hidden void @_ZN4ncnn4NoopD0Ev(ptr noundef nonnull align 8 dereferenceable(208) %0) unnamed_addr #1 comdat align 2 {
  %2 = alloca ptr, align 8
  store ptr %0, ptr %2, align 8, !tbaa !4
  %3 = load ptr, ptr %2, align 8
  call void @_ZN4ncnn5LayerD2Ev(ptr noundef nonnull align 8 dereferenceable(208) %3) #6
  call void @_ZdlPvm(ptr noundef %3, i64 noundef 208) #7
  ret void
}

declare noundef i32 @_ZN4ncnn5Layer10load_paramERKNS_9ParamDictE(ptr noundef nonnull align 8 dereferenceable(208), ptr noundef nonnull align 8 dereferenceable(16)) unnamed_addr #2

declare noundef i32 @_ZN4ncnn5Layer10load_modelERKNS_8ModelBinE(ptr noundef nonnull align 8 dereferenceable(208), ptr noundef nonnull align 8 dereferenceable(8)) unnamed_addr #2

declare noundef i32 @_ZN4ncnn5Layer15create_pipelineERKNS_6OptionE(ptr noundef nonnull align 8 dereferenceable(208), ptr noundef nonnull align 8 dereferenceable(64)) unnamed_addr #2

declare noundef i32 @_ZN4ncnn5Layer16destroy_pipelineERKNS_6OptionE(ptr noundef nonnull align 8 dereferenceable(208), ptr noundef nonnull align 8 dereferenceable(64)) unnamed_addr #2

declare noundef i32 @_ZNK4ncnn5Layer7forwardERKSt6vectorINS_3MatESaIS2_EERS4_RKNS_6OptionE(ptr noundef nonnull align 8 dereferenceable(208), ptr noundef nonnull align 8 dereferenceable(24), ptr noundef nonnull align 8 dereferenceable(24), ptr noundef nonnull align 8 dereferenceable(64)) unnamed_addr #2

declare noundef i32 @_ZNK4ncnn5Layer7forwardERKNS_3MatERS1_RKNS_6OptionE(ptr noundef nonnull align 8 dereferenceable(208), ptr noundef nonnull align 8 dereferenceable(72), ptr noundef nonnull align 8 dereferenceable(72), ptr noundef nonnull align 8 dereferenceable(64)) unnamed_addr #2

; Function Attrs: mustprogress nounwind uwtable
define hidden noundef i32 @_ZNK4ncnn4Noop15forward_inplaceERSt6vectorINS_3MatESaIS2_EERKNS_6OptionE(ptr noundef nonnull align 8 dereferenceable(208) %0, ptr noundef nonnull align 8 dereferenceable(24) %1, ptr noundef nonnull align 8 dereferenceable(64) %2) unnamed_addr #3 align 2 {
  %4 = alloca ptr, align 8
  %5 = alloca ptr, align 8
  %6 = alloca ptr, align 8
  store ptr %0, ptr %4, align 8, !tbaa !4
  store ptr %1, ptr %5, align 8, !tbaa !9
  store ptr %2, ptr %6, align 8, !tbaa !11
  ret i32 0
}

declare noundef i32 @_ZNK4ncnn5Layer15forward_inplaceERNS_3MatERKNS_6OptionE(ptr noundef nonnull align 8 dereferenceable(208), ptr noundef nonnull align 8 dereferenceable(72), ptr noundef nonnull align 8 dereferenceable(64)) unnamed_addr #2

; Function Attrs: mustprogress uwtable
define hidden void @_ZN4ncnn4NoopC2Ev(ptr noundef nonnull align 8 dereferenceable(208) %0) unnamed_addr #4 align 2 personality ptr @__gxx_personality_v0 {
  %2 = alloca ptr, align 8
  %3 = alloca ptr, align 8
  %4 = alloca i32, align 4
  store ptr %0, ptr %2, align 8, !tbaa !4
  %5 = load ptr, ptr %2, align 8
  call void @_ZN4ncnn5LayerC2Ev(ptr noundef nonnull align 8 dereferenceable(208) %5)
  store ptr getelementptr inbounds inrange(-16, 80) ({ [12 x ptr] }, ptr @_ZTVN4ncnn4NoopE, i32 0, i32 0, i32 2), ptr %5, align 8, !tbaa !13
  %6 = getelementptr inbounds nuw %"class.ncnn::Layer", ptr %5, i32 0, i32 2
  store i8 1, ptr %6, align 1, !tbaa !15
  %7 = getelementptr inbounds nuw %"class.ncnn::Layer", ptr %5, i32 0, i32 4
  store i8 1, ptr %7, align 1, !tbaa !33
  %8 = invoke noundef i32 @_ZN4ncnn23cpu_support_arm_asimdhpEv()
          to label %9 unwind label %20

9:                                                ; preds = %1
  %10 = icmp ne i32 %8, 0
  br i1 %10, label %15, label %11

11:                                               ; preds = %9
  %12 = invoke noundef i32 @_ZN4ncnn22cpu_support_riscv_zvfhEv()
          to label %13 unwind label %20

13:                                               ; preds = %11
  %14 = icmp ne i32 %12, 0
  br label %15

15:                                               ; preds = %13, %9
  %16 = phi i1 [ true, %9 ], [ %14, %13 ]
  %17 = getelementptr inbounds nuw %"class.ncnn::Layer", ptr %5, i32 0, i32 6
  %18 = zext i1 %16 to i8
  store i8 %18, ptr %17, align 1, !tbaa !34
  %19 = getelementptr inbounds nuw %"class.ncnn::Layer", ptr %5, i32 0, i32 5
  store i8 1, ptr %19, align 4, !tbaa !35
  ret void

20:                                               ; preds = %11, %1
  %21 = landingpad { ptr, i32 }
          cleanup
  %22 = extractvalue { ptr, i32 } %21, 0
  store ptr %22, ptr %3, align 8
  %23 = extractvalue { ptr, i32 } %21, 1
  store i32 %23, ptr %4, align 4
  call void @_ZN4ncnn5LayerD2Ev(ptr noundef nonnull align 8 dereferenceable(208) %5) #6
  br label %24

24:                                               ; preds = %20
  %25 = load ptr, ptr %3, align 8
  %26 = load i32, ptr %4, align 4
  %27 = insertvalue { ptr, i32 } poison, ptr %25, 0
  %28 = insertvalue { ptr, i32 } %27, i32 %26, 1
  resume { ptr, i32 } %28
}

declare void @_ZN4ncnn5LayerC2Ev(ptr noundef nonnull align 8 dereferenceable(208)) unnamed_addr #2

declare noundef i32 @_ZN4ncnn23cpu_support_arm_asimdhpEv() #2

declare i32 @__gxx_personality_v0(...)

declare noundef i32 @_ZN4ncnn22cpu_support_riscv_zvfhEv() #2

; Function Attrs: nobuiltin nounwind
declare void @_ZdlPvm(ptr noundef, i64 noundef) #5


!llvm.module.flags = !{!0, !1, !2, !3}

!0 = !{i32 1, !"wchar_size", i32 4}
!1 = !{i32 7, !"openmp", i32 51}
!2 = !{i32 8, !"PIC Level", i32 2}
!3 = !{i32 7, !"uwtable", i32 2}
!4 = !{!5, !5, i64 0}
!5 = !{!"p1 _ZTSN4ncnn4NoopE", !6, i64 0}
!6 = !{!"any pointer", !7, i64 0}
!7 = !{!"omnipotent char", !8, i64 0}
!8 = !{!"Simple C++ TBAA"}
!9 = !{!10, !10, i64 0}
!10 = !{!"p1 _ZTSSt6vectorIN4ncnn3MatESaIS1_EE", !6, i64 0}
!11 = !{!12, !12, i64 0}
!12 = !{!"p1 _ZTSN4ncnn6OptionE", !6, i64 0}
!13 = !{!14, !14, i64 0}
!14 = !{!"vtable pointer", !8, i64 0}
!15 = !{!16, !17, i64 9}
!16 = !{!"_ZTSN4ncnn5LayerE", !17, i64 8, !17, i64 9, !17, i64 10, !17, i64 11, !17, i64 12, !17, i64 13, !17, i64 14, !17, i64 15, !17, i64 16, !17, i64 17, !17, i64 18, !17, i64 19, !17, i64 20, !17, i64 21, !17, i64 22, !17, i64 23, !17, i64 24, !17, i64 25, !17, i64 26, !17, i64 27, !18, i64 28, !6, i64 32, !18, i64 40, !19, i64 48, !19, i64 80, !23, i64 112, !23, i64 136, !28, i64 160, !28, i64 184}
!17 = !{!"bool", !7, i64 0}
!18 = !{!"int", !7, i64 0}
!19 = !{!"_ZTSNSt7__cxx1112basic_stringIcSt11char_traitsIcESaIcEEE", !20, i64 0, !22, i64 8, !7, i64 16}
!20 = !{!"_ZTSNSt7__cxx1112basic_stringIcSt11char_traitsIcESaIcEE12_Alloc_hiderE", !21, i64 0}
!21 = !{!"p1 omnipotent char", !6, i64 0}
!22 = !{!"long", !7, i64 0}
!23 = !{!"_ZTSSt6vectorIiSaIiEE", !24, i64 0}
!24 = !{!"_ZTSSt12_Vector_baseIiSaIiEE", !25, i64 0}
!25 = !{!"_ZTSNSt12_Vector_baseIiSaIiEE12_Vector_implE", !26, i64 0}
!26 = !{!"_ZTSNSt12_Vector_baseIiSaIiEE17_Vector_impl_dataE", !27, i64 0, !27, i64 8, !27, i64 16}
!27 = !{!"p1 int", !6, i64 0}
!28 = !{!"_ZTSSt6vectorIN4ncnn3MatESaIS1_EE", !29, i64 0}
!29 = !{!"_ZTSSt12_Vector_baseIN4ncnn3MatESaIS1_EE", !30, i64 0}
!30 = !{!"_ZTSNSt12_Vector_baseIN4ncnn3MatESaIS1_EE12_Vector_implE", !31, i64 0}
!31 = !{!"_ZTSNSt12_Vector_baseIN4ncnn3MatESaIS1_EE17_Vector_impl_dataE", !32, i64 0, !32, i64 8, !32, i64 16}
!32 = !{!"p1 _ZTSN4ncnn3MatE", !6, i64 0}
!33 = !{!16, !17, i64 11}
!34 = !{!16, !17, i64 13}
!35 = !{!16, !17, i64 12}
