; ModuleID = 'bench/ncnn/original/noop.ll'
source_filename = "bench/ncnn/original/noop.ll"
target datalayout = "e-m:e-p270:32:32-p271:32:32-p272:64:64-i64:64-i128:128-f80:128-n8:16:32:64-S128"
target triple = "x86_64-pc-linux-gnu"

$_ZN4ncnn4NoopD0Ev = comdat any

@_ZTVN4ncnn4NoopE = hidden unnamed_addr constant { [12 x ptr] } { [12 x ptr] [ptr null, ptr @_ZTIN4ncnn4NoopE, ptr @_ZN4ncnn5LayerD2Ev, ptr @_ZN4ncnn4NoopD0Ev, ptr @_ZN4ncnn5Layer10load_paramERKNS_9ParamDictE, ptr @_ZN4ncnn5Layer10load_modelERKNS_8ModelBinE, ptr @_ZN4ncnn5Layer15create_pipelineERKNS_6OptionE, ptr @_ZN4ncnn5Layer16destroy_pipelineERKNS_6OptionE, ptr @_ZNK4ncnn5Layer7forwardERKSt6vectorINS_3MatESaIS2_EERS4_RKNS_6OptionE, ptr @_ZNK4ncnn5Layer7forwardERKNS_3MatERS1_RKNS_6OptionE, ptr @_ZNK4ncnn4Noop15forward_inplaceERSt6vectorINS_3MatESaIS2_EERKNS_6OptionE, ptr @_ZNK4ncnn5Layer15forward_inplaceERNS_3MatERKNS_6OptionE] }, align 8
@_ZTIN4ncnn4NoopE = hidden constant { ptr, ptr, ptr } { ptr getelementptr inbounds (ptr, ptr @_ZTVN10__cxxabiv120__si_class_type_infoE, i64 2), ptr @_ZTSN4ncnn4NoopE, ptr @_ZTIN4ncnn5LayerE }, align 8
@_ZTVN10__cxxabiv120__si_class_type_infoE = external global [0 x ptr]
@_ZTSN4ncnn4NoopE = hidden constant [13 x i8] c"N4ncnn4NoopE\00", align 1
@_ZTIN4ncnn5LayerE = external constant ptr

@_ZN4ncnn4NoopC1Ev = hidden unnamed_addr alias void (ptr), ptr @_ZN4ncnn4NoopC2Ev

; Function Attrs: nounwind
declare void @_ZN4ncnn5LayerD2Ev(ptr noundef nonnull align 8 dereferenceable(208)) unnamed_addr #0

; Function Attrs: inlinehint mustprogress nounwind uwtable
define linkonce_odr hidden void @_ZN4ncnn4NoopD0Ev(ptr noundef nonnull align 8 dereferenceable(208) %0) unnamed_addr #1 comdat align 2 {
  tail call void @_ZN4ncnn5LayerD2Ev(ptr noundef nonnull align 8 dereferenceable(208) %0) #6
  tail call void @_ZdlPvm(ptr noundef nonnull %0, i64 noundef 208) #7
  ret void
}

declare noundef i32 @_ZN4ncnn5Layer10load_paramERKNS_9ParamDictE(ptr noundef nonnull align 8 dereferenceable(208), ptr noundef nonnull align 8 dereferenceable(16)) unnamed_addr #2

declare noundef i32 @_ZN4ncnn5Layer10load_modelERKNS_8ModelBinE(ptr noundef nonnull align 8 dereferenceable(208), ptr noundef nonnull align 8 dereferenceable(8)) unnamed_addr #2

declare noundef i32 @_ZN4ncnn5Layer15create_pipelineERKNS_6OptionE(ptr noundef nonnull align 8 dereferenceable(208), ptr noundef nonnull align 8 dereferenceable(64)) unnamed_addr #2

declare noundef i32 @_ZN4ncnn5Layer16destroy_pipelineERKNS_6OptionE(ptr noundef nonnull align 8 dereferenceable(208), ptr noundef nonnull align 8 dereferenceable(64)) unnamed_addr #2

declare noundef i32 @_ZNK4ncnn5Layer7forwardERKSt6vectorINS_3MatESaIS2_EERS4_RKNS_6OptionE(ptr noundef nonnull align 8 dereferenceable(208), ptr noundef nonnull align 8 dereferenceable(24), ptr noundef nonnull align 8 dereferenceable(24), ptr noundef nonnull align 8 dereferenceable(64)) unnamed_addr #2

declare noundef i32 @_ZNK4ncnn5Layer7forwardERKNS_3MatERS1_RKNS_6OptionE(ptr noundef nonnull align 8 dereferenceable(208), ptr noundef nonnull align 8 dereferenceable(72), ptr noundef nonnull align 8 dereferenceable(72), ptr noundef nonnull align 8 dereferenceable(64)) unnamed_addr #2

; Function Attrs: mustprogress nofree norecurse nosync nounwind willreturn memory(none) uwtable
define hidden noundef i32 @_ZNK4ncnn4Noop15forward_inplaceERSt6vectorINS_3MatESaIS2_EERKNS_6OptionE(ptr nonnull readnone align 8 captures(none) %0, ptr nonnull readnone align 8 captures(none) %1, ptr nonnull readnone align 8 captures(none) %2) unnamed_addr #3 align 2 {
  ret i32 0
}

declare noundef i32 @_ZNK4ncnn5Layer15forward_inplaceERNS_3MatERKNS_6OptionE(ptr noundef nonnull align 8 dereferenceable(208), ptr noundef nonnull align 8 dereferenceable(72), ptr noundef nonnull align 8 dereferenceable(64)) unnamed_addr #2

; Function Attrs: mustprogress uwtable
define hidden void @_ZN4ncnn4NoopC2Ev(ptr noundef nonnull align 8 dereferenceable(208) %0) unnamed_addr #4 align 2 personality ptr @__gxx_personality_v0 {
  tail call void @_ZN4ncnn5LayerC2Ev(ptr noundef nonnull align 8 dereferenceable(208) %0)
  store ptr getelementptr inbounds nuw inrange(-16, 80) (i8, ptr @_ZTVN4ncnn4NoopE, i64 16), ptr %0, align 8, !tbaa !4
  %2 = getelementptr inbounds nuw i8, ptr %0, i64 9
  store i8 1, ptr %2, align 1, !tbaa !7
  %3 = getelementptr inbounds nuw i8, ptr %0, i64 11
  store i8 1, ptr %3, align 1, !tbaa !27
  %4 = invoke noundef i32 @_ZN4ncnn23cpu_support_arm_asimdhpEv()
          to label %5 unwind label %15

5:                                                ; preds = %1
  %.not = icmp eq i32 %4, 0
  br i1 %.not, label %6, label %11

6:                                                ; preds = %5
  %7 = invoke noundef i32 @_ZN4ncnn22cpu_support_riscv_zvfhEv()
          to label %8 unwind label %15

8:                                                ; preds = %6
  %9 = icmp ne i32 %7, 0
  %10 = zext i1 %9 to i8
  br label %11

11:                                               ; preds = %8, %5
  %12 = phi i8 [ 1, %5 ], [ %10, %8 ]
  %13 = getelementptr inbounds nuw i8, ptr %0, i64 13
  store i8 %12, ptr %13, align 1, !tbaa !28
  %14 = getelementptr inbounds nuw i8, ptr %0, i64 12
  store i8 1, ptr %14, align 4, !tbaa !29
  ret void

15:                                               ; preds = %6, %1
  %16 = landingpad { ptr, i32 }
          cleanup
  tail call void @_ZN4ncnn5LayerD2Ev(ptr noundef nonnull align 8 dereferenceable(208) %0) #6
  resume { ptr, i32 } %16
}

declare void @_ZN4ncnn5LayerC2Ev(ptr noundef nonnull align 8 dereferenceable(208)) unnamed_addr #2

declare noundef i32 @_ZN4ncnn23cpu_support_arm_asimdhpEv() local_unnamed_addr #2

declare i32 @__gxx_personality_v0(...)

declare noundef i32 @_ZN4ncnn22cpu_support_riscv_zvfhEv() local_unnamed_addr #2

; Function Attrs: nobuiltin nounwind
declare void @_ZdlPvm(ptr noundef, i64 noundef) local_unnamed_addr #5


!llvm.module.flags = !{!0, !1, !2, !3}

!0 = !{i32 1, !"wchar_size", i32 4}
!1 = !{i32 7, !"openmp", i32 51}
!2 = !{i32 8, !"PIC Level", i32 2}
!3 = !{i32 7, !"uwtable", i32 2}
!4 = !{!5, !5, i64 0}
!5 = !{!"vtable pointer", !6, i64 0}
!6 = !{!"Simple C++ TBAA"}
!7 = !{!8, !9, i64 9}
!8 = !{!"_ZTSN4ncnn5LayerE", !9, i64 8, !9, i64 9, !9, i64 10, !9, i64 11, !9, i64 12, !9, i64 13, !9, i64 14, !9, i64 15, !9, i64 16, !9, i64 17, !9, i64 18, !9, i64 19, !9, i64 20, !9, i64 21, !9, i64 22, !9, i64 23, !9, i64 24, !9, i64 25, !9, i64 26, !9, i64 27, !11, i64 28, !12, i64 32, !11, i64 40, !13, i64 48, !13, i64 80, !17, i64 112, !17, i64 136, !22, i64 160, !22, i64 184}
!9 = !{!"bool", !10, i64 0}
!10 = !{!"omnipotent char", !6, i64 0}
!11 = !{!"int", !10, i64 0}
!12 = !{!"any pointer", !10, i64 0}
!13 = !{!"_ZTSNSt7__cxx1112basic_stringIcSt11char_traitsIcESaIcEEE", !14, i64 0, !16, i64 8, !10, i64 16}
!14 = !{!"_ZTSNSt7__cxx1112basic_stringIcSt11char_traitsIcESaIcEE12_Alloc_hiderE", !15, i64 0}
!15 = !{!"p1 omnipotent char", !12, i64 0}
!16 = !{!"long", !10, i64 0}
!17 = !{!"_ZTSSt6vectorIiSaIiEE", !18, i64 0}
!18 = !{!"_ZTSSt12_Vector_baseIiSaIiEE", !19, i64 0}
!19 = !{!"_ZTSNSt12_Vector_baseIiSaIiEE12_Vector_implE", !20, i64 0}
!20 = !{!"_ZTSNSt12_Vector_baseIiSaIiEE17_Vector_impl_dataE", !21, i64 0, !21, i64 8, !21, i64 16}
!21 = !{!"p1 int", !12, i64 0}
!22 = !{!"_ZTSSt6vectorIN4ncnn3MatESaIS1_EE", !23, i64 0}
!23 = !{!"_ZTSSt12_Vector_baseIN4ncnn3MatESaIS1_EE", !24, i64 0}
!24 = !{!"_ZTSNSt12_Vector_baseIN4ncnn3MatESaIS1_EE12_Vector_implE", !25, i64 0}
!25 = !{!"_ZTSNSt12_Vector_baseIN4ncnn3MatESaIS1_EE17_Vector_impl_dataE", !26, i64 0, !26, i64 8, !26, i64 16}
!26 = !{!"p1 _ZTSN4ncnn3MatE", !12, i64 0}
!27 = !{!8, !9, i64 11}
!28 = !{!8, !9, i64 13}
!29 = !{!8, !9, i64 12}
